; Function Attrs: mustprogress uwtable
define void @_ZNK4LIEF3DEX5Class6fieldsERKNSt7__cxx1112basic_stringIcSt11char_traitsIcESaIcEEE(ptr dead_on_unwind noalias writable sret(%"class.LIEF::filter_iterator.38") align 8 %0, ptr noundef nonnull align 8 dereferenceable(140) %1, ptr noundef nonnull align 8 dereferenceable(32) %2) local_unnamed_addr #0 align 2 personality ptr @__gxx_personality_v0 {
  %4 = alloca %"class.std::function.34", align 8
  %5 = alloca %class.anon.39, align 8
  call void @_ZNSt7__cxx1112basic_stringIcSt11char_traitsIcESaIcEEC1ERKS4_(ptr noundef nonnull align 8 dereferenceable(32) %5, ptr noundef nonnull align 8 dereferenceable(32) %2)
  %6 = getelementptr inbounds i8, ptr %4, i64 16
  call void @llvm.memset.p0.i64(ptr noundef nonnull align 8 dereferenceable(32) %4, i8 0, i64 32, i1 false)
  %7 = invoke noalias noundef nonnull dereferenceable(32) ptr @_Znwm(i64 noundef 32) #19
          to label %.noexc unwind label %24

.noexc:                                           ; preds = %3
  invoke void @_ZNSt7__cxx1112basic_stringIcSt11char_traitsIcESaIcEEC1ERKS4_(ptr noundef nonnull align 8 dereferenceable(32) %7, ptr noundef nonnull align 8 dereferenceable(32) %5)
          to label %14 unwind label %.body.i

.body.i:                                          ; preds = %.noexc
  %8 = landingpad { ptr, i32 }
          cleanup
  call void @_ZdlPv(ptr noundef nonnull %7) #20
  %.pr.i = load ptr, ptr %6, align 8
  %.not.i.i = icmp eq ptr %.pr.i, null
  br i1 %.not.i.i, label %.body, label %9

9:                                                ; preds = %.body.i
  %10 = invoke noundef zeroext i1 %.pr.i(ptr noundef nonnull align 8 dereferenceable(16) %4, ptr noundef nonnull align 8 dereferenceable(16) %4, i32 noundef 3)
          to label %.body unwind label %11

11:                                               ; preds = %9
  %12 = landingpad { ptr, i32 }
          catch ptr null
  %13 = extractvalue { ptr, i32 } %12, 0
  call void @__clang_call_terminate(ptr %13) #21
  unreachable

14:                                               ; preds = %.noexc
  %15 = getelementptr inbounds i8, ptr %4, i64 24
  store ptr %7, ptr %4, align 8
  store ptr @"_ZNSt17_Function_handlerIFbRKPN4LIEF3DEX5FieldEEZNKS1_5Class6fieldsERKNSt7__cxx1112basic_stringIcSt11char_traitsIcESaIcEEEE3$_0E9_M_invokeERKSt9_Any_dataS5_", ptr %15, align 8
  store ptr @"_ZNSt17_Function_handlerIFbRKPN4LIEF3DEX5FieldEEZNKS1_5Class6fieldsERKNSt7__cxx1112basic_stringIcSt11char_traitsIcESaIcEEEE3$_0E10_M_managerERSt9_Any_dataRKSI_St18_Manager_operation", ptr %6, align 8
  %16 = getelementptr inbounds i8, ptr %1, i64 80
  invoke void @_ZN4LIEF15filter_iteratorIRKSt6vectorIPNS_3DEX5FieldESaIS4_EES4_N9__gnu_cxx17__normal_iteratorIPKS4_S6_EEEC2ES8_St8functionIFbRSB_EE(ptr noundef nonnull align 8 dereferenceable(56) %0, ptr noundef nonnull align 8 dereferenceable(24) %16, ptr noundef nonnull %4)
          to label %17 unwind label %26

17:                                               ; preds = %14
  %18 = load ptr, ptr %6, align 8
  %.not.i.i5 = icmp eq ptr %18, null
  br i1 %.not.i.i5, label %_ZNSt8functionIFbRKPN4LIEF3DEX5FieldEEED2Ev.exit, label %19

19:                                               ; preds = %17
  %20 = invoke noundef zeroext i1 %18(ptr noundef nonnull align 8 dereferenceable(16) %4, ptr noundef nonnull align 8 dereferenceable(16) %4, i32 noundef 3)
          to label %_ZNSt8functionIFbRKPN4LIEF3DEX5FieldEEED2Ev.exit unwind label %21

21:                                               ; preds = %19
  %22 = landingpad { ptr, i32 }
          catch ptr null
  %23 = extractvalue { ptr, i32 } %22, 0
  call void @__clang_call_terminate(ptr %23) #21
  unreachable

_ZNSt8functionIFbRKPN4LIEF3DEX5FieldEEED2Ev.exit: ; preds = %17, %19
  call void @_ZNSt7__cxx1112basic_stringIcSt11char_traitsIcESaIcEED1Ev(ptr noundef nonnull align 8 dereferenceable(32) %5) #17
  ret void

24:                                               ; preds = %3
  %25 = landingpad { ptr, i32 }
          cleanup
  br label %.body

26:                                               ; preds = %14
  %27 = landingpad { ptr, i32 }
          cleanup
  %28 = load ptr, ptr %6, align 8
  %.not.i.i7 = icmp eq ptr %28, null
  br i1 %.not.i.i7, label %.body, label %29

29:                                               ; preds = %26
  %30 = invoke noundef zeroext i1 %28(ptr noundef nonnull align 8 dereferenceable(16) %4, ptr noundef nonnull align 8 dereferenceable(16) %4, i32 noundef 3)
          to label %.body unwind label %31

31:                                               ; preds = %29
  %32 = landingpad { ptr, i32 }
          catch ptr null
  %33 = extractvalue { ptr, i32 } %32, 0
  call void @__clang_call_terminate(ptr %33) #21
  unreachable

.body:                                            ; preds = %29, %26, %24, %9, %.body.i
  %.pn = phi { ptr, i32 } [ %25, %24 ], [ %8, %9 ], [ %8, %.body.i ], [ %27, %26 ], [ %27, %29 ]
  call void @_ZNSt7__cxx1112basic_stringIcSt11char_traitsIcESaIcEED1Ev(ptr noundef nonnull align 8 dereferenceable(32) %5) #17
  resume { ptr, i32 } %.pn
}